target datalayout = "e-m:e-p270:32:32-p271:32:32-p272:64:64-i64:64-i128:128-f80:128-n8:16:32:64-S128"
target triple = "x86_64-pc-linux-gnu"

%struct.expert_field = type { i32, i32 }
%struct.MessageHeader = type { [4 x i8], %struct.Version, i8, i8, i32, i32, i32, ptr }
%struct.Version = type { i8, i8 }

@hf_GIAS_SubmitStandingQueryRequest_complete_DAG_results_return = internal global i32 0, align 4
@hf_GIAS_SubmitStandingQueryRequest_complete_DAG_results_results_loop = internal global i32 0, align 4
@ei_gias_unknown_giop_msg = internal global %struct.expert_field zeroinitializer, align 4
@ei_gias_unknown_exception = internal global %struct.expert_field zeroinitializer, align 4
@ett_giop_struct = internal global i32 0, align 4
@ett_giop_sequence = internal global i32 0, align 4
@boundary = internal global i32 12, align 4
@.str.826 = private unnamed_addr constant [21 x i8] c"Unknown exception %d\00", align 1
@.str.827 = private unnamed_addr constant [24 x i8] c"Unknown GIOP message %d\00", align 1
@.str.834 = private unnamed_addr constant [15 x i8] c"struct UCO_DAG\00", align 1
@.str.839 = private unnamed_addr constant [70 x i8] c"sequence GIAS_SubmitStandingQueryRequest_complete_DAG_results_results\00", align 1

; Function Attrs: null_pointer_is_valid sspstrong uwtable
define internal void @decode_GIAS_SubmitStandingQueryRequest_complete_DAG_results(ptr noundef %0, ptr noundef %1, ptr noundef %2, ptr noundef %3, ptr noundef %4, ptr noundef %5, ptr noundef %6, i1 noundef zeroext %7) #0 {
  %9 = alloca ptr, align 8
  %10 = alloca ptr, align 8
  %11 = alloca ptr, align 8
  %12 = alloca ptr, align 8
  %13 = alloca ptr, align 8
  %14 = alloca ptr, align 8
  %15 = alloca ptr, align 8
  %16 = alloca i8, align 1
  %17 = alloca i32, align 4
  %18 = alloca i32, align 4
  %19 = alloca i32, align 4
  %20 = alloca ptr, align 8
  %21 = alloca ptr, align 8
  store ptr %0, ptr %9, align 8
  store ptr %1, ptr %10, align 8
  store ptr %2, ptr %11, align 8
  store ptr %3, ptr %12, align 8
  store ptr %4, ptr %13, align 8
  store ptr %5, ptr %14, align 8
  store ptr %6, ptr %15, align 8
  %22 = zext i1 %7 to i8
  store i8 %22, ptr %16, align 1
  call void @llvm.lifetime.start.p0(i64 4, ptr %17) #6
  call void @llvm.lifetime.start.p0(i64 4, ptr %18) #6
  call void @llvm.lifetime.start.p0(i64 4, ptr %19) #6
  %23 = load ptr, ptr %14, align 8
  %24 = getelementptr inbounds nuw %struct.MessageHeader, ptr %23, i32 0, i32 3
  %25 = load i8, ptr %24, align 1
  %26 = zext i8 %25 to i32
  switch i32 %26, label %100 [
    i32 0, label %108
    i32 1, label %27
  ]

27:                                               ; preds = %8
  %28 = load ptr, ptr %14, align 8
  %29 = getelementptr inbounds nuw %struct.MessageHeader, ptr %28, i32 0, i32 6
  %30 = load i32, ptr %29, align 8
  switch i32 %30, label %92 [
    i32 0, label %31
    i32 1, label %99
  ]

31:                                               ; preds = %27
  %32 = load ptr, ptr %9, align 8
  %33 = load ptr, ptr %13, align 8
  %34 = load i8, ptr %16, align 1, !range !6, !noundef !7
  %35 = trunc i8 %34 to i1
  %36 = load i32, ptr @boundary, align 4
  %37 = call i32 @get_CDR_enum(ptr noundef %32, ptr noundef %33, i1 noundef zeroext %35, i32 noundef %36)
  store i32 %37, ptr %17, align 4
  %38 = load ptr, ptr %11, align 8
  %39 = load i32, ptr @hf_GIAS_SubmitStandingQueryRequest_complete_DAG_results_return, align 4
  %40 = load ptr, ptr %9, align 8
  %41 = load ptr, ptr %13, align 8
  %42 = load i32, ptr %41, align 4
  %43 = sub i32 %42, 4
  %44 = load i32, ptr %17, align 4
  %45 = call ptr @proto_tree_add_uint(ptr noundef %38, i32 noundef %39, ptr noundef %40, i32 noundef %43, i32 noundef 4, i32 noundef %44)
  %46 = load ptr, ptr %9, align 8
  %47 = load ptr, ptr %13, align 8
  %48 = load i8, ptr %16, align 1, !range !6, !noundef !7
  %49 = trunc i8 %48 to i1
  %50 = load i32, ptr @boundary, align 4
  %51 = call i32 @get_CDR_ulong(ptr noundef %46, ptr noundef %47, i1 noundef zeroext %49, i32 noundef %50)
  store i32 %51, ptr %18, align 4
  %52 = load ptr, ptr %11, align 8
  %53 = load i32, ptr @hf_GIAS_SubmitStandingQueryRequest_complete_DAG_results_results_loop, align 4
  %54 = load ptr, ptr %9, align 8
  %55 = load ptr, ptr %13, align 8
  %56 = load i32, ptr %55, align 4
  %57 = sub i32 %56, 4
  %58 = load i32, ptr %18, align 4
  %59 = call ptr @proto_tree_add_uint(ptr noundef %52, i32 noundef %53, ptr noundef %54, i32 noundef %57, i32 noundef 4, i32 noundef %58)
  call void @llvm.lifetime.start.p0(i64 8, ptr %20) #6
  %60 = load ptr, ptr %11, align 8
  store ptr %60, ptr %20, align 8
  %61 = load ptr, ptr %11, align 8
  %62 = load ptr, ptr %9, align 8
  %63 = load ptr, ptr %13, align 8
  %64 = load i32, ptr %63, align 4
  %65 = load i32, ptr @ett_giop_sequence, align 4
  %66 = call ptr @proto_tree_add_subtree(ptr noundef %61, ptr noundef %62, i32 noundef %64, i32 noundef -1, i32 noundef %65, ptr noundef null, ptr noundef @.str.839)
  store ptr %66, ptr %11, align 8
  store i32 0, ptr %19, align 4
  br label %67

67:                                               ; preds = %87, %31
  %68 = load i32, ptr %19, align 4
  %69 = load i32, ptr %18, align 4
  %70 = icmp ult i32 %68, %69
  br i1 %70, label %71, label %90

71:                                               ; preds = %67
  call void @llvm.lifetime.start.p0(i64 8, ptr %21) #6
  %72 = load ptr, ptr %11, align 8
  %73 = load ptr, ptr %9, align 8
  %74 = load ptr, ptr %13, align 8
  %75 = load i32, ptr %74, align 4
  %76 = load i32, ptr @ett_giop_struct, align 4
  %77 = call ptr @proto_tree_add_subtree(ptr noundef %72, ptr noundef %73, i32 noundef %75, i32 noundef -1, i32 noundef %76, ptr noundef null, ptr noundef @.str.834)
  store ptr %77, ptr %21, align 8
  %78 = load ptr, ptr %9, align 8
  %79 = load ptr, ptr %10, align 8
  %80 = load ptr, ptr %21, align 8
  %81 = load ptr, ptr %12, align 8
  %82 = load ptr, ptr %13, align 8
  %83 = load ptr, ptr %14, align 8
  %84 = load ptr, ptr %15, align 8
  %85 = load i8, ptr %16, align 1, !range !6, !noundef !7
  %86 = trunc i8 %85 to i1
  call void @decode_UCO_DAG_st(ptr noundef %78, ptr noundef %79, ptr noundef %80, ptr noundef %81, ptr noundef %82, ptr noundef %83, ptr noundef %84, i1 noundef zeroext %86)
  call void @llvm.lifetime.end.p0(i64 8, ptr %21) #6
  br label %87

87:                                               ; preds = %71
  %88 = load i32, ptr %19, align 4
  %89 = add i32 %88, 1
  store i32 %89, ptr %19, align 4
  br label %67, !llvm.loop !11

90:                                               ; preds = %67
  %91 = load ptr, ptr %20, align 8
  store ptr %91, ptr %11, align 8
  call void @llvm.lifetime.end.p0(i64 8, ptr %20) #6
  br label %99

92:                                               ; preds = %27
  %93 = load ptr, ptr %10, align 8
  %94 = load ptr, ptr %12, align 8
  %95 = load ptr, ptr %14, align 8
  %96 = getelementptr inbounds nuw %struct.MessageHeader, ptr %95, i32 0, i32 6
  %97 = load i32, ptr %96, align 8
  %98 = call ptr (ptr, ptr, ptr, ptr, ...) @expert_add_info_format(ptr noundef %93, ptr noundef %94, ptr noundef @ei_gias_unknown_exception, ptr noundef @.str.826, i32 noundef %97)
  br label %99

99:                                               ; preds = %92, %27, %90
  br label %108

100:                                              ; preds = %8
  %101 = load ptr, ptr %10, align 8
  %102 = load ptr, ptr %12, align 8
  %103 = load ptr, ptr %14, align 8
  %104 = getelementptr inbounds nuw %struct.MessageHeader, ptr %103, i32 0, i32 3
  %105 = load i8, ptr %104, align 1
  %106 = zext i8 %105 to i32
  %107 = call ptr (ptr, ptr, ptr, ptr, ...) @expert_add_info_format(ptr noundef %101, ptr noundef %102, ptr noundef @ei_gias_unknown_giop_msg, ptr noundef @.str.827, i32 noundef %106)
  br label %108

108:                                              ; preds = %100, %99, %8
  call void @llvm.lifetime.end.p0(i64 4, ptr %19) #6
  call void @llvm.lifetime.end.p0(i64 4, ptr %18) #6
  call void @llvm.lifetime.end.p0(i64 4, ptr %17) #6
  ret void
}