; Function Attrs: null_pointer_is_valid sspstrong uwtable
define internal fastcc void @decode_GIAS_SubmitStandingQueryRequest_complete_DAG_results(ptr noundef %0, ptr noundef %1, ptr noundef %2, ptr noundef %3, ptr noundef %4, ptr noundef %5, i1 noundef zeroext %6) unnamed_addr #0 {
  %8 = getelementptr inbounds nuw i8, ptr %5, i64 7
  %9 = load i8, ptr %8, align 1
  switch i8 %9, label %33 [
    i8 0, label %.loopexit
    i8 1, label %10
  ]

10:                                               ; preds = %7
  %11 = getelementptr inbounds nuw i8, ptr %5, i64 16
  %12 = load i32, ptr %11, align 8
  switch i32 %12, label %31 [
    i32 0, label %13
    i32 1, label %.loopexit
  ]

13:                                               ; preds = %10
  %14 = tail call i32 @get_CDR_enum(ptr noundef %0, ptr noundef %4, i1 noundef zeroext %6, i32 noundef 12)
  %15 = load i32, ptr @hf_GIAS_SubmitStandingQueryRequest_complete_DAG_results_return, align 4
  %16 = load i32, ptr %4, align 4
  %17 = add i32 %16, -4
  %18 = tail call ptr @proto_tree_add_uint(ptr noundef %2, i32 noundef %15, ptr noundef %0, i32 noundef %17, i32 noundef 4, i32 noundef %14)
  %19 = tail call i32 @get_CDR_ulong(ptr noundef %0, ptr noundef %4, i1 noundef zeroext %6, i32 noundef 12)
  %20 = load i32, ptr @hf_GIAS_SubmitStandingQueryRequest_complete_DAG_results_results_loop, align 4
  %21 = load i32, ptr %4, align 4
  %22 = add i32 %21, -4
  %23 = tail call ptr @proto_tree_add_uint(ptr noundef %2, i32 noundef %20, ptr noundef %0, i32 noundef %22, i32 noundef 4, i32 noundef %19)
  %24 = load i32, ptr %4, align 4
  %25 = load i32, ptr @ett_giop_sequence, align 4
  %26 = tail call ptr @proto_tree_add_subtree(ptr noundef %2, ptr noundef %0, i32 noundef %24, i32 noundef -1, i32 noundef %25, ptr noundef null, ptr noundef nonnull @.str.839)
  %.not = icmp eq i32 %19, 0
  br i1 %.not, label %.loopexit, label %.lr.ph

.lr.ph:                                           ; preds = %13, %.lr.ph
  %.01 = phi i32 [ %30, %.lr.ph ], [ 0, %13 ]
  %27 = load i32, ptr %4, align 4
  %28 = load i32, ptr @ett_giop_struct, align 4
  %29 = tail call ptr @proto_tree_add_subtree(ptr noundef %26, ptr noundef %0, i32 noundef %27, i32 noundef -1, i32 noundef %28, ptr noundef null, ptr noundef nonnull @.str.834)
  tail call fastcc void @decode_UCO_DAG_st(ptr noundef %0, ptr noundef %1, ptr noundef %29, ptr noundef %3, ptr noundef %4, ptr noundef %5, i1 noundef zeroext %6)
  %30 = add nuw i32 %.01, 1
  %exitcond.not = icmp eq i32 %30, %19
  br i1 %exitcond.not, label %.loopexit, label %.lr.ph, !llvm.loop !10

31:                                               ; preds = %10
  %32 = tail call ptr (ptr, ptr, ptr, ptr, ...) @expert_add_info_format(ptr noundef %1, ptr noundef %3, ptr noundef nonnull @ei_gias_unknown_exception, ptr noundef nonnull @.str.826, i32 noundef %12)
  br label %.loopexit

33:                                               ; preds = %7
  %34 = zext i8 %9 to i32
  %35 = tail call ptr (ptr, ptr, ptr, ptr, ...) @expert_add_info_format(ptr noundef %1, ptr noundef %3, ptr noundef nonnull @ei_gias_unknown_giop_msg, ptr noundef nonnull @.str.827, i32 noundef %34)
  br label %.loopexit

.loopexit:                                        ; preds = %.lr.ph, %13, %10, %31, %33, %7
  ret void
}